; Function Attrs: nounwind uwtable
define internal range(i32 0, 2) i32 @CVApolynomialMalloc(ptr noundef readonly captures(none) %0) #0 {
  %2 = getelementptr inbounds nuw i8, ptr %0, i64 2192
  %3 = load ptr, ptr %2, align 8, !tbaa !3
  %4 = getelementptr inbounds nuw i8, ptr %0, i64 448
  %5 = load ptr, ptr %4, align 8, !tbaa !48
  %6 = tail call ptr @N_VClone(ptr noundef %5) #8
  %7 = getelementptr inbounds nuw i8, ptr %3, i64 480
  store ptr %6, ptr %7, align 8, !tbaa !49
  %8 = icmp eq ptr %6, null
  br i1 %8, label %.loopexit, label %9

9:                                                ; preds = %1
  %10 = getelementptr inbounds nuw i8, ptr %3, i64 160
  %11 = load i32, ptr %10, align 8, !tbaa !38
  %.not = icmp eq i32 %11, 0
  br i1 %.not, label %21, label %12

12:                                               ; preds = %9
  %13 = getelementptr inbounds nuw i8, ptr %0, i64 140
  %14 = load i32, ptr %13, align 4, !tbaa !50
  %15 = load ptr, ptr %4, align 8, !tbaa !48
  %16 = tail call ptr @N_VCloneVectorArray(i32 noundef %14, ptr noundef %15) #8
  %17 = getelementptr inbounds nuw i8, ptr %3, i64 488
  store ptr %16, ptr %17, align 8, !tbaa !51
  %18 = icmp eq ptr %16, null
  br i1 %18, label %19, label %21

19:                                               ; preds = %12
  %20 = load ptr, ptr %7, align 8, !tbaa !49
  tail call void @N_VDestroy(ptr noundef %20) #8
  br label %.loopexit

21:                                               ; preds = %12, %9
  %22 = getelementptr inbounds nuw i8, ptr %3, i64 96
  %23 = load ptr, ptr %22, align 8, !tbaa !27
  %24 = getelementptr inbounds nuw i8, ptr %3, i64 88
  %25 = load i64, ptr %24, align 8, !tbaa !26
  %.not55.not72 = icmp slt i64 %25, 0
  br i1 %.not55.not72, label %.loopexit, label %.lr.ph

.lr.ph:                                           ; preds = %21
  %26 = getelementptr inbounds nuw i8, ptr %0, i64 140
  br label %27

27:                                               ; preds = %.lr.ph, %44
  %.05273 = phi i64 [ 0, %.lr.ph ], [ %48, %44 ]
  %28 = tail call noalias dereferenceable_or_null(24) ptr @malloc(i64 noundef 24) #9
  %29 = icmp eq ptr %28, null
  br i1 %29, label %.loopexit65, label %30

30:                                               ; preds = %27
  %31 = load ptr, ptr %4, align 8, !tbaa !48
  %32 = tail call ptr @N_VClone(ptr noundef %31) #8
  store ptr %32, ptr %28, align 8, !tbaa !82
  %33 = icmp eq ptr %32, null
  br i1 %33, label %.loopexit65.sink.split, label %34

34:                                               ; preds = %30
  %35 = load i32, ptr %10, align 8, !tbaa !38
  %.not56 = icmp eq i32 %35, 0
  br i1 %.not56, label %44, label %36

36:                                               ; preds = %34
  %37 = load i32, ptr %26, align 4, !tbaa !50
  %38 = load ptr, ptr %4, align 8, !tbaa !48
  %39 = tail call ptr @N_VCloneVectorArray(i32 noundef %37, ptr noundef %38) #8
  %40 = getelementptr inbounds nuw i8, ptr %28, i64 8
  store ptr %39, ptr %40, align 8, !tbaa !84
  %41 = icmp eq ptr %39, null
  br i1 %41, label %42, label %44

42:                                               ; preds = %36
  %43 = load ptr, ptr %28, align 8, !tbaa !82
  tail call void @N_VDestroy(ptr noundef %43) #8
  br label %.loopexit65.sink.split

44:                                               ; preds = %36, %34
  %45 = getelementptr inbounds nuw ptr, ptr %23, i64 %.05273
  %46 = load ptr, ptr %45, align 8, !tbaa !28
  %47 = getelementptr inbounds nuw i8, ptr %46, i64 8
  store ptr %28, ptr %47, align 8, !tbaa !57
  %48 = add nuw nsw i64 %.05273, 1
  %49 = load i64, ptr %24, align 8, !tbaa !26
  %.not55.not.not = icmp slt i64 %.05273, %49
  br i1 %.not55.not.not, label %27, label %.loopexit, !llvm.loop !85

.loopexit65.sink.split:                           ; preds = %30, %42
  tail call void @free(ptr noundef nonnull %28) #8
  br label %.loopexit65

.loopexit65:                                      ; preds = %27, %.loopexit65.sink.split
  %50 = load ptr, ptr %7, align 8, !tbaa !49
  tail call void @N_VDestroy(ptr noundef %50) #8
  %51 = load i32, ptr %10, align 8, !tbaa !38
  %.not58 = icmp eq i32 %51, 0
  br i1 %.not58, label %56, label %52

52:                                               ; preds = %.loopexit65
  %53 = getelementptr inbounds nuw i8, ptr %3, i64 488
  %54 = load ptr, ptr %53, align 8, !tbaa !51
  %55 = load i32, ptr %26, align 4, !tbaa !50
  tail call void @N_VDestroyVectorArray(ptr noundef %54, i32 noundef %55) #8
  br label %56

56:                                               ; preds = %52, %.loopexit65
  %.not76 = icmp eq i64 %.05273, 0
  br i1 %.not76, label %.loopexit, label %.lr.ph75

.lr.ph75:                                         ; preds = %56, %67
  %.174 = phi i64 [ %73, %67 ], [ 0, %56 ]
  %57 = getelementptr inbounds nuw ptr, ptr %23, i64 %.174
  %58 = load ptr, ptr %57, align 8, !tbaa !28
  %59 = getelementptr inbounds nuw i8, ptr %58, i64 8
  %60 = load ptr, ptr %59, align 8, !tbaa !57
  %61 = load ptr, ptr %60, align 8, !tbaa !82
  tail call void @N_VDestroy(ptr noundef %61) #8
  %62 = load i32, ptr %10, align 8, !tbaa !38
  %.not59 = icmp eq i32 %62, 0
  br i1 %.not59, label %67, label %63

63:                                               ; preds = %.lr.ph75
  %64 = getelementptr inbounds nuw i8, ptr %60, i64 8
  %65 = load ptr, ptr %64, align 8, !tbaa !84
  %66 = load i32, ptr %26, align 4, !tbaa !50
  tail call void @N_VDestroyVectorArray(ptr noundef %65, i32 noundef %66) #8
  br label %67

67:                                               ; preds = %63, %.lr.ph75
  %68 = load ptr, ptr %57, align 8, !tbaa !28
  %69 = getelementptr inbounds nuw i8, ptr %68, i64 8
  %70 = load ptr, ptr %69, align 8, !tbaa !57
  tail call void @free(ptr noundef %70) #8
  %71 = load ptr, ptr %57, align 8, !tbaa !28
  %72 = getelementptr inbounds nuw i8, ptr %71, i64 8
  store ptr null, ptr %72, align 8, !tbaa !57
  %73 = add nuw nsw i64 %.174, 1
  %exitcond.not = icmp eq i64 %73, %.05273
  br i1 %exitcond.not, label %.loopexit, label %.lr.ph75, !llvm.loop !86

.loopexit:                                        ; preds = %44, %67, %21, %56, %1, %19
  %.053 = phi i32 [ 0, %19 ], [ 0, %1 ], [ 0, %56 ], [ 1, %21 ], [ 0, %67 ], [ 1, %44 ]
  ret i32 %.053
}